target datalayout = "e-m:e-p270:32:32-p271:32:32-p272:64:64-i64:64-i128:128-f80:128-n8:16:32:64-S128"
target triple = "x86_64-pc-linux-gnu"

%struct.progress = type { ptr, ptr, i64, i64, i32, i32, i32, ptr, i64, %struct.strbuf, i32, i32 }
%struct.strbuf = type { i64, i64, ptr }
%struct.throughput = type { i64, i64, i64, i32, i32, [8 x i32], [8 x i32], i32, %struct.strbuf }
%struct.itimerval = type { %struct.timeval, %struct.timeval }
%struct.timeval = type { i64, i64 }

@progress_test_ns = dso_local global i64 0, align 8
@progress_update = internal global i32 0, align 4
@.str = private unnamed_addr constant [11 x i8] c"progress.c\00", align 1
@.str.1 = private unnamed_addr constant [40 x i8] c"don't provide NULL to stop_progress_msg\00", align 1
@progress_testing = dso_local global i32 0, align 4
@.str.2 = private unnamed_addr constant [3 x i8] c", \00", align 1
@.str.3 = private unnamed_addr constant [4 x i8] c" | \00", align 1
@.str.4 = private unnamed_addr constant [11 x i8] c"./strbuf.h\00", align 1
@.str.5 = private unnamed_addr constant [30 x i8] c"strbuf_setlen() beyond buffer\00", align 1
@strbuf_slopbuf = external global [0 x i8], align 1
@.str.13 = private unnamed_addr constant [9 x i8] c"progress\00", align 1
@.str.15 = private unnamed_addr constant [7 x i8] c", %s.\0A\00", align 1
@.str.16 = private unnamed_addr constant [14 x i8] c"total_objects\00", align 1
@.str.17 = private unnamed_addr constant [12 x i8] c"total_bytes\00", align 1

; Function Attrs: inlinehint nounwind uwtable
define internal void @strbuf_addstr(ptr noundef %0, ptr noundef %1) #5 {
  %3 = alloca ptr, align 8
  %4 = alloca ptr, align 8
  store ptr %0, ptr %3, align 8, !tbaa !29
  store ptr %1, ptr %4, align 8, !tbaa !31
  %5 = load ptr, ptr %3, align 8, !tbaa !29
  %6 = load ptr, ptr %4, align 8, !tbaa !31
  %7 = load ptr, ptr %4, align 8, !tbaa !31
  %8 = call i64 @strlen(ptr noundef %7) #11
  call void @strbuf_add(ptr noundef %5, ptr noundef %6, i64 noundef %8)
  ret void
}

; Function Attrs: inlinehint nounwind uwtable
define internal void @strbuf_setlen(ptr noundef %0, i64 noundef %1) #5 {
  %3 = alloca ptr, align 8
  %4 = alloca i64, align 8
  store ptr %0, ptr %3, align 8, !tbaa !29
  store i64 %1, ptr %4, align 8, !tbaa !11
  %5 = load i64, ptr %4, align 8, !tbaa !11
  %6 = load ptr, ptr %3, align 8, !tbaa !29
  %7 = getelementptr inbounds nuw %struct.strbuf, ptr %6, i32 0, i32 0
  %8 = load i64, ptr %7, align 8, !tbaa !48
  %9 = icmp ne i64 %8, 0
  br i1 %9, label %10, label %15

10:                                               ; preds = %2
  %11 = load ptr, ptr %3, align 8, !tbaa !29
  %12 = getelementptr inbounds nuw %struct.strbuf, ptr %11, i32 0, i32 0
  %13 = load i64, ptr %12, align 8, !tbaa !48
  %14 = sub i64 %13, 1
  br label %16

15:                                               ; preds = %2
  br label %16

16:                                               ; preds = %15, %10
  %17 = phi i64 [ %14, %10 ], [ 0, %15 ]
  %18 = icmp ugt i64 %5, %17
  br i1 %18, label %19, label %20

19:                                               ; preds = %16
  call void (ptr, i32, ptr, ...) @BUG_fl(ptr noundef @.str.4, i32 noundef 167, ptr noundef @.str.5) #10
  unreachable

20:                                               ; preds = %16
  %21 = load i64, ptr %4, align 8, !tbaa !11
  %22 = load ptr, ptr %3, align 8, !tbaa !29
  %23 = getelementptr inbounds nuw %struct.strbuf, ptr %22, i32 0, i32 1
  store i64 %21, ptr %23, align 8, !tbaa !32
  %24 = load ptr, ptr %3, align 8, !tbaa !29
  %25 = getelementptr inbounds nuw %struct.strbuf, ptr %24, i32 0, i32 2
  %26 = load ptr, ptr %25, align 8, !tbaa !41
  %27 = icmp ne ptr %26, @strbuf_slopbuf
  br i1 %27, label %28, label %34

28:                                               ; preds = %20
  %29 = load ptr, ptr %3, align 8, !tbaa !29
  %30 = getelementptr inbounds nuw %struct.strbuf, ptr %29, i32 0, i32 2
  %31 = load ptr, ptr %30, align 8, !tbaa !41
  %32 = load i64, ptr %4, align 8, !tbaa !11
  %33 = getelementptr inbounds nuw i8, ptr %31, i64 %32
  store i8 0, ptr %33, align 1, !tbaa !49
  br label %35

34:                                               ; preds = %20
  br label %35

35:                                               ; preds = %34, %28
  ret void
}

; Function Attrs: nounwind uwtable
define internal void @throughput_string(ptr noundef %0, i64 noundef %1, i32 noundef %2) #0 {
  %4 = alloca ptr, align 8
  %5 = alloca i64, align 8
  %6 = alloca i32, align 4
  store ptr %0, ptr %4, align 8, !tbaa !29
  store i64 %1, ptr %5, align 8, !tbaa !11
  store i32 %2, ptr %6, align 4, !tbaa !4
  %7 = load ptr, ptr %4, align 8, !tbaa !29
  call void @strbuf_setlen(ptr noundef %7, i64 noundef 0)
  %8 = load ptr, ptr %4, align 8, !tbaa !29
  call void @strbuf_addstr(ptr noundef %8, ptr noundef @.str.2)
  %9 = load ptr, ptr %4, align 8, !tbaa !29
  %10 = load i64, ptr %5, align 8, !tbaa !11
  call void @strbuf_humanise_bytes(ptr noundef %9, i64 noundef %10)
  %11 = load ptr, ptr %4, align 8, !tbaa !29
  call void @strbuf_addstr(ptr noundef %11, ptr noundef @.str.3)
  %12 = load ptr, ptr %4, align 8, !tbaa !29
  %13 = load i32, ptr %6, align 4, !tbaa !4
  %14 = mul i32 %13, 1024
  %15 = zext i32 %14 to i64
  call void @strbuf_humanise_rate(ptr noundef %12, i64 noundef %15)
  ret void
}

; Function Attrs: nounwind uwtable
define internal i64 @progress_getnanotime(ptr noundef %0) #0 {
  %2 = alloca i64, align 8
  %3 = alloca ptr, align 8
  store ptr %0, ptr %3, align 8, !tbaa !8
  %4 = load i32, ptr @progress_testing, align 4, !tbaa !4
  %5 = icmp ne i32 %4, 0
  br i1 %5, label %6, label %12

6:                                                ; preds = %1
  %7 = load ptr, ptr %3, align 8, !tbaa !8
  %8 = getelementptr inbounds nuw %struct.progress, ptr %7, i32 0, i32 8
  %9 = load i64, ptr %8, align 8, !tbaa !28
  %10 = load i64, ptr @progress_test_ns, align 8, !tbaa !11
  %11 = add i64 %9, %10
  store i64 %11, ptr %2, align 8
  br label %14

12:                                               ; preds = %1
  %13 = call i64 @getnanotime()
  store i64 %13, ptr %2, align 8
  br label %14

14:                                               ; preds = %12, %6
  %15 = load i64, ptr %2, align 8
  ret i64 %15
}

; Function Attrs: nounwind uwtable
define dso_local void @display_progress(ptr noundef %0, i64 noundef %1) #0 {
  %3 = alloca ptr, align 8
  %4 = alloca i64, align 8
  store ptr %0, ptr %3, align 8, !tbaa !8
  store i64 %1, ptr %4, align 8, !tbaa !11
  %5 = load ptr, ptr %3, align 8, !tbaa !8
  %6 = icmp ne ptr %5, null
  br i1 %6, label %7, label %10

7:                                                ; preds = %2
  %8 = load ptr, ptr %3, align 8, !tbaa !8
  %9 = load i64, ptr %4, align 8, !tbaa !11
  call void @display(ptr noundef %8, i64 noundef %9, ptr noundef null)
  br label %10

10:                                               ; preds = %7, %2
  ret void
}

; Function Attrs: nounwind uwtable
define internal void @clear_progress_signal() #0 {
  %1 = alloca %struct.itimerval, align 8
  %2 = alloca i32, align 4
  call void @llvm.lifetime.start.p0(i64 32, ptr %1) #9
  call void @llvm.memset.p0.i64(ptr align 8 %1, i8 0, i64 32, i1 false)
  %3 = load i32, ptr @progress_testing, align 4, !tbaa !4
  %4 = icmp ne i32 %3, 0
  br i1 %4, label %5, label %6

5:                                                ; preds = %0
  store i32 1, ptr %2, align 4
  br label %9

6:                                                ; preds = %0
  %7 = call i32 @setitimer(i32 noundef 0, ptr noundef %1, ptr noundef null) #9
  %8 = call ptr @signal(i32 noundef 14, ptr noundef inttoptr (i64 1 to ptr)) #9
  store volatile i32 0, ptr @progress_update, align 4, !tbaa !4
  store i32 0, ptr %2, align 4
  br label %9

9:                                                ; preds = %6, %5
  call void @llvm.lifetime.end.p0(i64 32, ptr %1) #9
  %10 = load i32, ptr %2, align 4
  switch i32 %10, label %12 [
    i32 0, label %11
    i32 1, label %11
  ]

11:                                               ; preds = %9, %9
  ret void

12:                                               ; preds = %9
  unreachable
}

; Function Attrs: nounwind uwtable
define internal void @log_trace2(ptr noundef %0) #0 {
  %2 = alloca ptr, align 8
  store ptr %0, ptr %2, align 8, !tbaa !8
  %3 = load ptr, ptr %2, align 8, !tbaa !8
  %4 = getelementptr inbounds nuw %struct.progress, ptr %3, i32 0, i32 0
  %5 = load ptr, ptr %4, align 8, !tbaa !44
  %6 = load ptr, ptr %2, align 8, !tbaa !8
  %7 = getelementptr inbounds nuw %struct.progress, ptr %6, i32 0, i32 3
  %8 = load i64, ptr %7, align 8, !tbaa !35
  call void @trace2_data_intmax_fl(ptr noundef @.str, i32 noundef 351, ptr noundef @.str.13, ptr noundef %5, ptr noundef @.str.16, i64 noundef %8)
  %9 = load ptr, ptr %2, align 8, !tbaa !8
  %10 = getelementptr inbounds nuw %struct.progress, ptr %9, i32 0, i32 7
  %11 = load ptr, ptr %10, align 8, !tbaa !13
  %12 = icmp ne ptr %11, null
  br i1 %12, label %13, label %22

13:                                               ; preds = %1
  %14 = load ptr, ptr %2, align 8, !tbaa !8
  %15 = getelementptr inbounds nuw %struct.progress, ptr %14, i32 0, i32 0
  %16 = load ptr, ptr %15, align 8, !tbaa !44
  %17 = load ptr, ptr %2, align 8, !tbaa !8
  %18 = getelementptr inbounds nuw %struct.progress, ptr %17, i32 0, i32 7
  %19 = load ptr, ptr %18, align 8, !tbaa !13
  %20 = getelementptr inbounds nuw %struct.throughput, ptr %19, i32 0, i32 0
  %21 = load i64, ptr %20, align 8, !tbaa !20
  call void @trace2_data_intmax_fl(ptr noundef @.str, i32 noundef 355, ptr noundef @.str.13, ptr noundef %16, ptr noundef @.str.17, i64 noundef %21)
  br label %22

22:                                               ; preds = %13, %1
  %23 = load ptr, ptr %2, align 8, !tbaa !8
  %24 = getelementptr inbounds nuw %struct.progress, ptr %23, i32 0, i32 1
  %25 = load ptr, ptr %24, align 8, !tbaa !42
  %26 = load ptr, ptr %2, align 8, !tbaa !8
  %27 = getelementptr inbounds nuw %struct.progress, ptr %26, i32 0, i32 0
  %28 = load ptr, ptr %27, align 8, !tbaa !44
  call void (ptr, i32, ptr, ptr, ptr, ...) @trace2_region_leave_fl(ptr noundef @.str, i32 noundef 357, ptr noundef @.str.13, ptr noundef %25, ptr noundef %28)
  ret void
}

; Function Attrs: nounwind uwtable
define internal void @force_last_update(ptr noundef %0, ptr noundef %1) #0 {
  %3 = alloca ptr, align 8
  %4 = alloca ptr, align 8
  %5 = alloca ptr, align 8
  %6 = alloca ptr, align 8
  %7 = alloca i64, align 8
  %8 = alloca i32, align 4
  %9 = alloca i32, align 4
  store ptr %0, ptr %3, align 8, !tbaa !8
  store ptr %1, ptr %4, align 8, !tbaa !31
  call void @llvm.lifetime.start.p0(i64 8, ptr %5) #9
  call void @llvm.lifetime.start.p0(i64 8, ptr %6) #9
  %10 = load ptr, ptr %3, align 8, !tbaa !8
  %11 = getelementptr inbounds nuw %struct.progress, ptr %10, i32 0, i32 7
  %12 = load ptr, ptr %11, align 8, !tbaa !13
  store ptr %12, ptr %6, align 8, !tbaa !19
  %13 = load ptr, ptr %6, align 8, !tbaa !19
  %14 = icmp ne ptr %13, null
  br i1 %14, label %15, label %45

15:                                               ; preds = %2
  call void @llvm.lifetime.start.p0(i64 8, ptr %7) #9
  %16 = load ptr, ptr %3, align 8, !tbaa !8
  %17 = call i64 @progress_getnanotime(ptr noundef %16)
  store i64 %17, ptr %7, align 8, !tbaa !11
  call void @llvm.lifetime.start.p0(i64 4, ptr %8) #9
  call void @llvm.lifetime.start.p0(i64 4, ptr %9) #9
  %18 = load i64, ptr %7, align 8, !tbaa !11
  %19 = load ptr, ptr %3, align 8, !tbaa !8
  %20 = getelementptr inbounds nuw %struct.progress, ptr %19, i32 0, i32 8
  %21 = load i64, ptr %20, align 8, !tbaa !28
  %22 = sub i64 %18, %21
  %23 = mul i64 %22, 4398
  %24 = lshr i64 %23, 32
  %25 = trunc i64 %24 to i32
  store i32 %25, ptr %8, align 4, !tbaa !4
  %26 = load ptr, ptr %6, align 8, !tbaa !19
  %27 = getelementptr inbounds nuw %struct.throughput, ptr %26, i32 0, i32 0
  %28 = load i64, ptr %27, align 8, !tbaa !20
  %29 = load i32, ptr %8, align 4, !tbaa !4
  %30 = icmp ne i32 %29, 0
  br i1 %30, label %31, label %33

31:                                               ; preds = %15
  %32 = load i32, ptr %8, align 4, !tbaa !4
  br label %34

33:                                               ; preds = %15
  br label %34

34:                                               ; preds = %33, %31
  %35 = phi i32 [ %32, %31 ], [ 1, %33 ]
  %36 = zext i32 %35 to i64
  %37 = sdiv i64 %28, %36
  %38 = trunc i64 %37 to i32
  store i32 %38, ptr %9, align 4, !tbaa !4
  %39 = load ptr, ptr %6, align 8, !tbaa !19
  %40 = getelementptr inbounds nuw %struct.throughput, ptr %39, i32 0, i32 8
  %41 = load ptr, ptr %6, align 8, !tbaa !19
  %42 = getelementptr inbounds nuw %struct.throughput, ptr %41, i32 0, i32 0
  %43 = load i64, ptr %42, align 8, !tbaa !20
  %44 = load i32, ptr %9, align 4, !tbaa !4
  call void @throughput_string(ptr noundef %40, i64 noundef %43, i32 noundef %44)
  call void @llvm.lifetime.end.p0(i64 4, ptr %9) #9
  call void @llvm.lifetime.end.p0(i64 4, ptr %8) #9
  call void @llvm.lifetime.end.p0(i64 8, ptr %7) #9
  br label %45

45:                                               ; preds = %34, %2
  store volatile i32 1, ptr @progress_update, align 4, !tbaa !4
  %46 = load ptr, ptr %4, align 8, !tbaa !31
  %47 = call ptr (ptr, ...) @xstrfmt(ptr noundef @.str.15, ptr noundef %46)
  store ptr %47, ptr %5, align 8, !tbaa !31
  %48 = load ptr, ptr %3, align 8, !tbaa !8
  %49 = load ptr, ptr %3, align 8, !tbaa !8
  %50 = getelementptr inbounds nuw %struct.progress, ptr %49, i32 0, i32 2
  %51 = load i64, ptr %50, align 8, !tbaa !27
  %52 = load ptr, ptr %5, align 8, !tbaa !31
  call void @display(ptr noundef %48, i64 noundef %51, ptr noundef %52)
  %53 = load ptr, ptr %5, align 8, !tbaa !31
  call void @free(ptr noundef %53) #9
  call void @llvm.lifetime.end.p0(i64 8, ptr %6) #9
  call void @llvm.lifetime.end.p0(i64 8, ptr %5) #9
  ret void
}

; Function Attrs: nounwind uwtable
define internal void @finish_if_sparse(ptr noundef %0) #0 {
  %2 = alloca ptr, align 8
  store ptr %0, ptr %2, align 8, !tbaa !8
  %3 = load ptr, ptr %2, align 8, !tbaa !8
  %4 = getelementptr inbounds nuw %struct.progress, ptr %3, i32 0, i32 6
  %5 = load i32, ptr %4, align 8, !tbaa !45
  %6 = icmp ne i32 %5, 0
  br i1 %6, label %7, label %20

7:                                                ; preds = %1
  %8 = load ptr, ptr %2, align 8, !tbaa !8
  %9 = getelementptr inbounds nuw %struct.progress, ptr %8, i32 0, i32 2
  %10 = load i64, ptr %9, align 8, !tbaa !27
  %11 = load ptr, ptr %2, align 8, !tbaa !8
  %12 = getelementptr inbounds nuw %struct.progress, ptr %11, i32 0, i32 3
  %13 = load i64, ptr %12, align 8, !tbaa !35
  %14 = icmp ne i64 %10, %13
  br i1 %14, label %15, label %20

15:                                               ; preds = %7
  %16 = load ptr, ptr %2, align 8, !tbaa !8
  %17 = load ptr, ptr %2, align 8, !tbaa !8
  %18 = getelementptr inbounds nuw %struct.progress, ptr %17, i32 0, i32 3
  %19 = load i64, ptr %18, align 8, !tbaa !35
  call void @display_progress(ptr noundef %16, i64 noundef %19)
  br label %20

20:                                               ; preds = %15, %7, %1
  ret void
}

; Function Attrs: nounwind uwtable
define dso_local void @stop_progress_msg(ptr noundef %0, ptr noundef %1) #0 {
  %3 = alloca ptr, align 8
  %4 = alloca ptr, align 8
  %5 = alloca ptr, align 8
  %6 = alloca i32, align 4
  store ptr %0, ptr %3, align 8, !tbaa !46
  store ptr %1, ptr %4, align 8, !tbaa !31
  call void @llvm.lifetime.start.p0(i64 8, ptr %5) #9
  %7 = load ptr, ptr %3, align 8, !tbaa !46
  %8 = icmp ne ptr %7, null
  br i1 %8, label %10, label %9

9:                                                ; preds = %2
  call void (ptr, i32, ptr, ...) @BUG_fl(ptr noundef @.str, i32 noundef 365, ptr noundef @.str.1) #10
  unreachable

10:                                               ; preds = %2
  %11 = load ptr, ptr %3, align 8, !tbaa !46
  %12 = load ptr, ptr %11, align 8, !tbaa !8
  store ptr %12, ptr %5, align 8, !tbaa !8
  %13 = load ptr, ptr %5, align 8, !tbaa !8
  %14 = icmp ne ptr %13, null
  br i1 %14, label %16, label %15

15:                                               ; preds = %10
  store i32 1, ptr %6, align 4
  br label %44

16:                                               ; preds = %10
  %17 = load ptr, ptr %3, align 8, !tbaa !46
  store ptr null, ptr %17, align 8, !tbaa !8
  %18 = load ptr, ptr %5, align 8, !tbaa !8
  call void @finish_if_sparse(ptr noundef %18)
  %19 = load ptr, ptr %5, align 8, !tbaa !8
  %20 = getelementptr inbounds nuw %struct.progress, ptr %19, i32 0, i32 2
  %21 = load i64, ptr %20, align 8, !tbaa !27
  %22 = icmp ne i64 %21, -1
  br i1 %22, label %23, label %26

23:                                               ; preds = %16
  %24 = load ptr, ptr %5, align 8, !tbaa !8
  %25 = load ptr, ptr %4, align 8, !tbaa !31
  call void @force_last_update(ptr noundef %24, ptr noundef %25)
  br label %26

26:                                               ; preds = %23, %16
  %27 = load ptr, ptr %5, align 8, !tbaa !8
  call void @log_trace2(ptr noundef %27)
  call void @clear_progress_signal()
  %28 = load ptr, ptr %5, align 8, !tbaa !8
  %29 = getelementptr inbounds nuw %struct.progress, ptr %28, i32 0, i32 9
  call void @strbuf_release(ptr noundef %29)
  %30 = load ptr, ptr %5, align 8, !tbaa !8
  %31 = getelementptr inbounds nuw %struct.progress, ptr %30, i32 0, i32 7
  %32 = load ptr, ptr %31, align 8, !tbaa !13
  %33 = icmp ne ptr %32, null
  br i1 %33, label %34, label %39

34:                                               ; preds = %26
  %35 = load ptr, ptr %5, align 8, !tbaa !8
  %36 = getelementptr inbounds nuw %struct.progress, ptr %35, i32 0, i32 7
  %37 = load ptr, ptr %36, align 8, !tbaa !13
  %38 = getelementptr inbounds nuw %struct.throughput, ptr %37, i32 0, i32 8
  call void @strbuf_release(ptr noundef %38)
  br label %39

39:                                               ; preds = %34, %26
  %40 = load ptr, ptr %5, align 8, !tbaa !8
  %41 = getelementptr inbounds nuw %struct.progress, ptr %40, i32 0, i32 7
  %42 = load ptr, ptr %41, align 8, !tbaa !13
  call void @free(ptr noundef %42) #9
  %43 = load ptr, ptr %5, align 8, !tbaa !8
  call void @free(ptr noundef %43) #9
  store i32 0, ptr %6, align 4
  br label %44

44:                                               ; preds = %39, %15
  call void @llvm.lifetime.end.p0(i64 8, ptr %5) #9
  %45 = load i32, ptr %6, align 4
  switch i32 %45, label %47 [
    i32 0, label %46
    i32 1, label %46
  ]

46:                                               ; preds = %44, %44
  ret void

47:                                               ; preds = %44
  unreachable
}