; Function Attrs: nounwind uwtable
define dso_local void @stop_progress_msg(ptr noundef %0, ptr noundef %1) local_unnamed_addr #1 {
  %3 = alloca %struct.itimerval, align 8
  %.not = icmp eq ptr %0, null
  br i1 %.not, label %4, label %5

4:                                                ; preds = %2
  tail call void (ptr, i32, ptr, ...) @BUG_fl(ptr noundef nonnull @.str, i32 noundef 365, ptr noundef nonnull @.str.1) #14
  unreachable

5:                                                ; preds = %2
  %6 = load ptr, ptr %0, align 8, !tbaa !48
  %.not16 = icmp eq ptr %6, null
  br i1 %.not16, label %68, label %7

7:                                                ; preds = %5
  store ptr null, ptr %0, align 8, !tbaa !48
  %8 = getelementptr inbounds nuw i8, ptr %6, i64 40
  %9 = load i32, ptr %8, align 8, !tbaa !39
  %.not.i = icmp eq i32 %9, 0
  br i1 %.not.i, label %finish_if_sparse.exit, label %10

10:                                               ; preds = %7
  %11 = getelementptr inbounds nuw i8, ptr %6, i64 16
  %12 = load i64, ptr %11, align 8, !tbaa !28
  %13 = getelementptr inbounds nuw i8, ptr %6, i64 24
  %14 = load i64, ptr %13, align 8, !tbaa !31
  %.not5.i = icmp eq i64 %12, %14
  br i1 %.not5.i, label %finish_if_sparse.exit, label %15

15:                                               ; preds = %10
  tail call fastcc void @display(ptr noundef nonnull %6, i64 noundef %14, ptr noundef null)
  br label %finish_if_sparse.exit

finish_if_sparse.exit:                            ; preds = %7, %10, %15
  %16 = getelementptr inbounds nuw i8, ptr %6, i64 16
  %17 = load i64, ptr %16, align 8, !tbaa !28
  %.not17 = icmp eq i64 %17, -1
  br i1 %.not17, label %46, label %18

18:                                               ; preds = %finish_if_sparse.exit
  %19 = getelementptr inbounds nuw i8, ptr %6, i64 48
  %20 = load ptr, ptr %19, align 8, !tbaa !8
  %.not.i19 = icmp eq ptr %20, null
  br i1 %.not.i19, label %force_last_update.exit, label %21

21:                                               ; preds = %18
  %22 = load i32, ptr @progress_testing, align 4, !tbaa !4
  %.not.i.i = icmp eq i32 %22, 0
  br i1 %.not.i.i, label %28, label %23

23:                                               ; preds = %21
  %24 = getelementptr inbounds nuw i8, ptr %6, i64 56
  %25 = load i64, ptr %24, align 8, !tbaa !16
  %26 = load i64, ptr @progress_test_ns, align 8, !tbaa !17
  %27 = add i64 %26, %25
  br label %progress_getnanotime.exit.i

28:                                               ; preds = %21
  %29 = tail call i64 @getnanotime() #12
  %.phi.trans.insert.i = getelementptr inbounds nuw i8, ptr %6, i64 56
  %.pre.i = load i64, ptr %.phi.trans.insert.i, align 8, !tbaa !16
  br label %progress_getnanotime.exit.i

progress_getnanotime.exit.i:                      ; preds = %28, %23
  %30 = phi i64 [ %25, %23 ], [ %.pre.i, %28 ]
  %.0.i.i = phi i64 [ %27, %23 ], [ %29, %28 ]
  %31 = sub i64 %.0.i.i, %30
  %32 = mul i64 %31, 4398
  %33 = load i64, ptr %20, align 8, !tbaa !18
  %34 = tail call i64 @llvm.umax.i64(i64 %32, i64 4294967296)
  %35 = lshr i64 %34, 32
  %36 = sdiv i64 %33, %35
  %37 = getelementptr inbounds nuw i8, ptr %20, i64 104
  %38 = getelementptr inbounds nuw i8, ptr %20, i64 112
  store i64 0, ptr %38, align 8, !tbaa !25
  %39 = getelementptr inbounds nuw i8, ptr %20, i64 120
  %40 = load ptr, ptr %39, align 8, !tbaa !26
  %.not9.i.i.i = icmp eq ptr %40, @strbuf_slopbuf
  br i1 %.not9.i.i.i, label %throughput_string.exit.i, label %41

41:                                               ; preds = %progress_getnanotime.exit.i
  store i8 0, ptr %40, align 1, !tbaa !27
  br label %throughput_string.exit.i

throughput_string.exit.i:                         ; preds = %41, %progress_getnanotime.exit.i
  tail call void @strbuf_add(ptr noundef nonnull %37, ptr noundef nonnull @.str.2, i64 noundef 2) #12
  tail call void @strbuf_humanise_bytes(ptr noundef nonnull %37, i64 noundef %33) #12
  tail call void @strbuf_add(ptr noundef nonnull %37, ptr noundef nonnull @.str.3, i64 noundef 3) #12
  %42 = shl i64 %36, 10
  %43 = and i64 %42, 4294966272
  tail call void @strbuf_humanise_rate(ptr noundef nonnull %37, i64 noundef %43) #12
  br label %force_last_update.exit

force_last_update.exit:                           ; preds = %18, %throughput_string.exit.i
  store volatile i32 1, ptr @progress_update, align 4, !tbaa !4
  %44 = tail call ptr (ptr, ...) @xstrfmt(ptr noundef nonnull @.str.15, ptr noundef %1) #12
  %45 = load i64, ptr %16, align 8, !tbaa !28
  tail call fastcc void @display(ptr noundef nonnull %6, i64 noundef %45, ptr noundef %44)
  tail call void @free(ptr noundef %44) #12
  br label %46

46:                                               ; preds = %force_last_update.exit, %finish_if_sparse.exit
  %47 = load ptr, ptr %6, align 8, !tbaa !38
  %48 = getelementptr inbounds nuw i8, ptr %6, i64 24
  %49 = load i64, ptr %48, align 8, !tbaa !31
  tail call void @trace2_data_intmax_fl(ptr noundef nonnull @.str, i32 noundef 351, ptr noundef nonnull @.str.13, ptr noundef %47, ptr noundef nonnull @.str.16, i64 noundef %49) #12
  %50 = getelementptr inbounds nuw i8, ptr %6, i64 48
  %51 = load ptr, ptr %50, align 8, !tbaa !8
  %.not.i20 = icmp eq ptr %51, null
  br i1 %.not.i20, label %log_trace2.exit, label %52

52:                                               ; preds = %46
  %53 = load ptr, ptr %6, align 8, !tbaa !38
  %54 = load i64, ptr %51, align 8, !tbaa !18
  tail call void @trace2_data_intmax_fl(ptr noundef nonnull @.str, i32 noundef 355, ptr noundef nonnull @.str.13, ptr noundef %53, ptr noundef nonnull @.str.17, i64 noundef %54) #12
  br label %log_trace2.exit

log_trace2.exit:                                  ; preds = %46, %52
  %55 = getelementptr inbounds nuw i8, ptr %6, i64 8
  %56 = load ptr, ptr %55, align 8, !tbaa !37
  %57 = load ptr, ptr %6, align 8, !tbaa !38
  tail call void (ptr, i32, ptr, ptr, ptr, ...) @trace2_region_leave_fl(ptr noundef nonnull @.str, i32 noundef 357, ptr noundef nonnull @.str.13, ptr noundef %56, ptr noundef %57) #12
  call void @llvm.lifetime.start.p0(i64 32, ptr nonnull %3) #12
  call void @llvm.memset.p0.i64(ptr noundef nonnull align 8 dereferenceable(32) %3, i8 0, i64 32, i1 false)
  %58 = load i32, ptr @progress_testing, align 4, !tbaa !4
  %.not.i21 = icmp eq i32 %58, 0
  br i1 %.not.i21, label %59, label %clear_progress_signal.exit

59:                                               ; preds = %log_trace2.exit
  %60 = call i32 @setitimer(i32 noundef 0, ptr noundef nonnull %3, ptr noundef null) #12
  %61 = tail call ptr @signal(i32 noundef 14, ptr noundef nonnull inttoptr (i64 1 to ptr)) #12
  store volatile i32 0, ptr @progress_update, align 4, !tbaa !4
  br label %clear_progress_signal.exit

clear_progress_signal.exit:                       ; preds = %log_trace2.exit, %59
  call void @llvm.lifetime.end.p0(i64 32, ptr nonnull %3) #12
  %62 = getelementptr inbounds nuw i8, ptr %6, i64 64
  tail call void @strbuf_release(ptr noundef nonnull %62) #12
  %63 = load ptr, ptr %50, align 8, !tbaa !8
  %.not18 = icmp eq ptr %63, null
  br i1 %.not18, label %66, label %64

64:                                               ; preds = %clear_progress_signal.exit
  %65 = getelementptr inbounds nuw i8, ptr %63, i64 104
  tail call void @strbuf_release(ptr noundef nonnull %65) #12
  %.pre = load ptr, ptr %50, align 8, !tbaa !8
  br label %66

66:                                               ; preds = %64, %clear_progress_signal.exit
  %67 = phi ptr [ %.pre, %64 ], [ null, %clear_progress_signal.exit ]
  tail call void @free(ptr noundef %67) #12
  tail call void @free(ptr noundef nonnull %6) #12
  br label %68

68:                                               ; preds = %5, %66
  ret void
}